; Function Attrs: nounwind uwtable
define dso_local i32 @get_range_collation(i32 noundef %0) local_unnamed_addr #0 {
  %2 = zext i32 %0 to i64
  %3 = tail call ptr @SearchSysCache1(i32 noundef 55, i64 noundef %2) #8
  %.not = icmp eq ptr %3, null
  br i1 %.not, label %12, label %4

4:                                                ; preds = %1
  %5 = getelementptr i8, ptr %3, i64 16
  %.val = load ptr, ptr %5, align 8
  %6 = getelementptr inbounds nuw i8, ptr %.val, i64 22
  %7 = load i8, ptr %6, align 2
  %8 = zext i8 %7 to i64
  %9 = getelementptr inbounds nuw i8, ptr %.val, i64 %8
  %10 = getelementptr inbounds nuw i8, ptr %9, i64 12
  %11 = load i32, ptr %10, align 4
  tail call void @ReleaseSysCache(ptr noundef nonnull %3) #8
  br label %12

12:                                               ; preds = %1, %4
  %.0 = phi i32 [ %11, %4 ], [ 0, %1 ]
  ret i32 %.0
}